---
triple:          'arm64-apple-darwin'
binary-path:     LenstraECM
relocations:
  - { offsetInCU: 0x61C5, offset: 0x61C5, size: 0x8, addend: 0x0, symName: __ZNSt3__14endlB8ue170006IcNS_11char_traitsIcEEEERNS_13basic_ostreamIT_T0_EES7_, symObjAddr: 0x1E8, symBinAddr: 0x100003324, symSize: 0x58 }
  - { offsetInCU: 0x620A, offset: 0x620A, size: 0x8, addend: 0x0, symName: __ZNSt3__112__to_addressB8ue170006ImEEPT_S2_, symObjAddr: 0x780, symBinAddr: 0x1000038BC, symSize: 0x14 }
  - { offsetInCU: 0x623F, offset: 0x623F, size: 0x8, addend: 0x0, symName: __ZNSt3__119__libcpp_deallocateB8ue170006EPvmm, symObjAddr: 0x858, symBinAddr: 0x100003994, symSize: 0x60 }
  - { offsetInCU: 0x62A4, offset: 0x62A4, size: 0x8, addend: 0x0, symName: __ZNSt3__124__is_overaligned_for_newB8ue170006Em, symObjAddr: 0x8B8, symBinAddr: 0x1000039F4, symSize: 0x20 }
  - { offsetInCU: 0x62D2, offset: 0x62D2, size: 0x8, addend: 0x0, symName: __ZNSt3__127__do_deallocate_handle_sizeB8ue170006IJSt11align_val_tEEEvPvmDpT_, symObjAddr: 0x8D8, symBinAddr: 0x100003A14, symSize: 0x30 }
  - { offsetInCU: 0x6325, offset: 0x6325, size: 0x8, addend: 0x0, symName: __ZNSt3__127__do_deallocate_handle_sizeB8ue170006IJEEEvPvmDpT_, symObjAddr: 0x908, symBinAddr: 0x100003A44, symSize: 0x28 }
  - { offsetInCU: 0x6363, offset: 0x6363, size: 0x8, addend: 0x0, symName: __ZNSt3__124__libcpp_operator_deleteB8ue170006IJPvSt11align_val_tEEEvDpT_, symObjAddr: 0x930, symBinAddr: 0x100003A6C, symSize: 0x2C }
  - { offsetInCU: 0x63AC, offset: 0x63AC, size: 0x8, addend: 0x0, symName: __ZNSt3__124__libcpp_operator_deleteB8ue170006IJPvEEEvDpT_, symObjAddr: 0x95C, symBinAddr: 0x100003A98, symSize: 0x24 }
  - { offsetInCU: 0x63E1, offset: 0x63E1, size: 0x8, addend: 0x0, symName: __ZNSt3__13maxB8ue170006ImEERKT_S3_S3_, symObjAddr: 0xFB8, symBinAddr: 0x1000040F4, symSize: 0x2C }
  - { offsetInCU: 0x6424, offset: 0x6424, size: 0x8, addend: 0x0, symName: __ZNSt3__13minB8ue170006ImEERKT_S3_S3_, symObjAddr: 0xFE4, symBinAddr: 0x100004120, symSize: 0x2C }
  - { offsetInCU: 0x6651, offset: 0x6651, size: 0x8, addend: 0x0, symName: __ZNSt3__13minB8ue170006ImNS_6__lessIvvEEEERKT_S5_S5_T0_, symObjAddr: 0x1070, symBinAddr: 0x1000041AC, symSize: 0x54 }
  - { offsetInCU: 0x66F0, offset: 0x66F0, size: 0x8, addend: 0x0, symName: __ZNSt3__120__throw_length_errorB8ue170006EPKc, symObjAddr: 0x114C, symBinAddr: 0x100004288, symSize: 0x64 }
  - { offsetInCU: 0x671A, offset: 0x671A, size: 0x8, addend: 0x0, symName: __ZNSt3__13maxB8ue170006ImNS_6__lessIvvEEEERKT_S5_S5_T0_, symObjAddr: 0x1230, symBinAddr: 0x10000436C, symSize: 0x54 }
  - { offsetInCU: 0x6774, offset: 0x6774, size: 0x8, addend: 0x0, symName: __ZNSt3__119__allocate_at_leastB8ue170006INS_9allocatorImEEEENS_19__allocation_resultINS_16allocator_traitsIT_E7pointerEEERS5_m, symObjAddr: 0x1394, symBinAddr: 0x1000044D0, symSize: 0x40 }
  - { offsetInCU: 0x67B7, offset: 0x67B7, size: 0x8, addend: 0x0, symName: __ZNSt3__117__libcpp_allocateB8ue170006Emm, symObjAddr: 0x1518, symBinAddr: 0x100004654, symSize: 0x60 }
  - { offsetInCU: 0x6811, offset: 0x6811, size: 0x8, addend: 0x0, symName: __ZNSt3__121__libcpp_operator_newB8ue170006IJmSt11align_val_tEEEPvDpT_, symObjAddr: 0x1578, symBinAddr: 0x1000046B4, symSize: 0x2C }
  - { offsetInCU: 0x685E, offset: 0x685E, size: 0x8, addend: 0x0, symName: __ZNSt3__121__libcpp_operator_newB8ue170006IJmEEEPvDpT_, symObjAddr: 0x15A4, symBinAddr: 0x1000046E0, symSize: 0x24 }
  - { offsetInCU: 0x6897, offset: 0x6897, size: 0x8, addend: 0x0, symName: __ZNSt3__142__uninitialized_allocator_move_if_noexceptB8ue170006INS_9allocatorImEENS_16reverse_iteratorIPmEES5_mvEET1_RT_T0_S9_S6_, symObjAddr: 0x162C, symBinAddr: 0x100004768, symSize: 0x78 }
  - { offsetInCU: 0x6914, offset: 0x6914, size: 0x8, addend: 0x0, symName: __ZNSt3__14swapB8ue170006IPmEENS_9enable_ifIXaasr21is_move_constructibleIT_EE5valuesr18is_move_assignableIS3_EE5valueEvE4typeERS3_S6_, symObjAddr: 0x16F0, symBinAddr: 0x10000482C, symSize: 0x3C }
  - { offsetInCU: 0x6965, offset: 0x6965, size: 0x8, addend: 0x0, symName: __ZNSt3__14moveB8ue170006INS_16reverse_iteratorIPmEES3_EET0_T_S5_S4_, symObjAddr: 0x17D8, symBinAddr: 0x100004914, symSize: 0x78 }
  - { offsetInCU: 0x69BF, offset: 0x69BF, size: 0x8, addend: 0x0, symName: __ZNSt3__16__moveB8ue170006INS_17_ClassicAlgPolicyENS_16reverse_iteratorIPmEES4_S4_EENS_4pairIT0_T2_EES6_T1_S7_, symObjAddr: 0x1850, symBinAddr: 0x10000498C, symSize: 0x64 }
  - { offsetInCU: 0x6A2B, offset: 0x6A2B, size: 0x8, addend: 0x0, symName: __ZNSt3__123__dispatch_copy_or_moveB8ue170006INS_17_ClassicAlgPolicyENS_11__move_loopIS1_EENS_14__move_trivialENS_16reverse_iteratorIPmEES7_S7_EENS_4pairIT2_T4_EES9_T3_SA_, symObjAddr: 0x18B4, symBinAddr: 0x1000049F0, symSize: 0x64 }
  - { offsetInCU: 0x6AA9, offset: 0x6AA9, size: 0x8, addend: 0x0, symName: __ZNSt3__121__unwrap_and_dispatchB8ue170006INS_10__overloadINS_11__move_loopINS_17_ClassicAlgPolicyEEENS_14__move_trivialEEENS_16reverse_iteratorIPmEES9_S9_Li0EEENS_4pairIT0_T2_EESB_T1_SC_, symObjAddr: 0x1918, symBinAddr: 0x100004A54, symSize: 0x12C }
  - { offsetInCU: 0x6B39, offset: 0x6B39, size: 0x8, addend: 0x0, symName: __ZNSt3__114__unwrap_rangeB8ue170006INS_16reverse_iteratorIPmEES3_EENS_4pairIT0_S5_EET_S7_, symObjAddr: 0x1A44, symBinAddr: 0x100004B80, symSize: 0x84 }
  - { offsetInCU: 0x6CB4, offset: 0x6CB4, size: 0x8, addend: 0x0, symName: __ZNSt3__113__unwrap_iterB8ue170006INS_16reverse_iteratorIPmEENS_18__unwrap_iter_implIS3_Lb0EEELi0EEEDTclsrT0_8__unwrapclsr3stdE7declvalIT_EEEES7_, symObjAddr: 0x1B68, symBinAddr: 0x100004CA4, symSize: 0x44 }
  - { offsetInCU: 0x6CF8, offset: 0x6CF8, size: 0x8, addend: 0x0, symName: __ZNSt3__19make_pairB8ue170006INS_16reverse_iteratorIPmEES3_EENS_4pairINS_18__unwrap_ref_decayIT_E4typeENS5_IT0_E4typeEEEOS6_OS9_, symObjAddr: 0x1BAC, symBinAddr: 0x100004CE8, symSize: 0x38 }
  - { offsetInCU: 0x6D47, offset: 0x6D47, size: 0x8, addend: 0x0, symName: __ZNSt3__114__rewrap_rangeB8ue170006INS_16reverse_iteratorIPmEES3_EET_S4_T0_, symObjAddr: 0x1BE4, symBinAddr: 0x100004D20, symSize: 0x5C }
  - { offsetInCU: 0x6D93, offset: 0x6D93, size: 0x8, addend: 0x0, symName: __ZNSt3__113__rewrap_iterB8ue170006INS_16reverse_iteratorIPmEES3_NS_18__unwrap_iter_implIS3_Lb0EEEEET_S6_T0_, symObjAddr: 0x1C40, symBinAddr: 0x100004D7C, symSize: 0x74 }
  - { offsetInCU: 0x6DE8, offset: 0x6DE8, size: 0x8, addend: 0x0, symName: __ZNSt3__1neB8ue170006IPmS1_EEbRKNS_16reverse_iteratorIT_EERKNS2_IT0_EE, symObjAddr: 0x1CB4, symBinAddr: 0x100004DF0, symSize: 0x48 }
  - { offsetInCU: 0x6EE6, offset: 0x6EE6, size: 0x8, addend: 0x0, symName: __ZNSt3__19use_facetB8ue170006INS_5ctypeIcEEEERKT_RKNS_6localeE, symObjAddr: 0x20C8, symBinAddr: 0x100005204, symSize: 0x2C }
  - { offsetInCU: 0x76E0, offset: 0x76E0, size: 0x8, addend: 0x0, symName: __ZSt28__throw_bad_array_new_lengthB8ue170006v, symObjAddr: 0x14E4, symBinAddr: 0x100004620, symSize: 0x34 }
  - { offsetInCU: 0x7B8B, offset: 0x7B8B, size: 0x8, addend: 0x0, symName: __ZNSt3__16vectorImNS_9allocatorImEEE26__swap_out_circular_bufferERNS_14__split_bufferImRS2_EE, symObjAddr: 0xE00, symBinAddr: 0x100003F3C, symSize: 0x110 }
  - { offsetInCU: 0x9F04, offset: 0x9F04, size: 0x8, addend: 0x0, symName: _main, symObjAddr: 0x0, symBinAddr: 0x10000313C, symSize: 0x124 }
  - { offsetInCU: 0x9F49, offset: 0x9F49, size: 0x8, addend: 0x0, symName: __ZNSt3__16vectorImNS_9allocatorImEEEC1B8ue170006Ev, symObjAddr: 0x124, symBinAddr: 0x100003260, symSize: 0x2C }
  - { offsetInCU: 0x9F71, offset: 0x9F71, size: 0x8, addend: 0x0, symName: __ZNSt3__16vectorImNS_9allocatorImEEE9push_backB8ue170006EOm, symObjAddr: 0x150, symBinAddr: 0x10000328C, symSize: 0x6C }
  - { offsetInCU: 0xA057, offset: 0xA057, size: 0x8, addend: 0x0, symName: __ZNSt3__113basic_ostreamIcNS_11char_traitsIcEEElsB8ue170006EPFRS3_S4_E, symObjAddr: 0x1BC, symBinAddr: 0x1000032F8, symSize: 0x2C }
  - { offsetInCU: 0xA2F7, offset: 0xA2F7, size: 0x8, addend: 0x0, symName: __ZN10LenstraECMD1Ev, symObjAddr: 0x240, symBinAddr: 0x10000337C, symSize: 0x2C }
  - { offsetInCU: 0xA322, offset: 0xA322, size: 0x8, addend: 0x0, symName: __ZNSt3__16vectorImNS_9allocatorImEEED1B8ue170006Ev, symObjAddr: 0x26C, symBinAddr: 0x1000033A8, symSize: 0x2C }
  - { offsetInCU: 0xA34B, offset: 0xA34B, size: 0x8, addend: 0x0, symName: __ZN10LenstraECMD2Ev, symObjAddr: 0x298, symBinAddr: 0x1000033D4, symSize: 0x30 }
  - { offsetInCU: 0xA376, offset: 0xA376, size: 0x8, addend: 0x0, symName: __ZNSt3__16vectorImNS_9allocatorImEEEC2B8ue170006Ev, symObjAddr: 0x2C8, symBinAddr: 0x100003404, symSize: 0x4C }
  - { offsetInCU: 0xA3A9, offset: 0xA3A9, size: 0x8, addend: 0x0, symName: __ZNSt3__117__compressed_pairIPmNS_9allocatorImEEEC1B8ue170006IDnNS_18__default_init_tagEEEOT_OT0_, symObjAddr: 0x314, symBinAddr: 0x100003450, symSize: 0x3C }
  - { offsetInCU: 0xA400, offset: 0xA400, size: 0x8, addend: 0x0, symName: __ZNSt3__117__compressed_pairIPmNS_9allocatorImEEEC2B8ue170006IDnNS_18__default_init_tagEEEOT_OT0_, symObjAddr: 0x35C, symBinAddr: 0x100003498, symSize: 0x40 }
  - { offsetInCU: 0xA457, offset: 0xA457, size: 0x8, addend: 0x0, symName: __ZNSt3__122__compressed_pair_elemIPmLi0ELb0EEC2B8ue170006IDnvEEOT_, symObjAddr: 0x39C, symBinAddr: 0x1000034D8, symSize: 0x1C }
  - { offsetInCU: 0xA498, offset: 0xA498, size: 0x8, addend: 0x0, symName: __ZNSt3__122__compressed_pair_elemINS_9allocatorImEELi1ELb1EEC2B8ue170006ENS_18__default_init_tagE, symObjAddr: 0x3B8, symBinAddr: 0x1000034F4, symSize: 0x2C }
  - { offsetInCU: 0xA4CC, offset: 0xA4CC, size: 0x8, addend: 0x0, symName: __ZNSt3__19allocatorImEC2B8ue170006Ev, symObjAddr: 0x3E4, symBinAddr: 0x100003520, symSize: 0x2C }
  - { offsetInCU: 0xA4F5, offset: 0xA4F5, size: 0x8, addend: 0x0, symName: __ZNSt3__116__non_trivial_ifILb1ENS_9allocatorImEEEC2B8ue170006Ev, symObjAddr: 0x410, symBinAddr: 0x10000354C, symSize: 0x14 }
  - { offsetInCU: 0xA51E, offset: 0xA51E, size: 0x8, addend: 0x0, symName: __ZNSt3__16vectorImNS_9allocatorImEEED2B8ue170006Ev, symObjAddr: 0x424, symBinAddr: 0x100003560, symSize: 0x44 }
  - { offsetInCU: 0xA547, offset: 0xA547, size: 0x8, addend: 0x0, symName: __ZNSt3__16vectorImNS_9allocatorImEEE16__destroy_vectorC1B8ue170006ERS3_, symObjAddr: 0x468, symBinAddr: 0x1000035A4, symSize: 0x34 }
  - { offsetInCU: 0xA57F, offset: 0xA57F, size: 0x8, addend: 0x0, symName: __ZNSt3__16vectorImNS_9allocatorImEEE16__destroy_vectorclB8ue170006Ev, symObjAddr: 0x49C, symBinAddr: 0x1000035D8, symSize: 0x90 }
  - { offsetInCU: 0xA5A4, offset: 0xA5A4, size: 0x8, addend: 0x0, symName: __ZNSt3__16vectorImNS_9allocatorImEEE16__destroy_vectorC2B8ue170006ERS3_, symObjAddr: 0x52C, symBinAddr: 0x100003668, symSize: 0x20 }
  - { offsetInCU: 0xA5DC, offset: 0xA5DC, size: 0x8, addend: 0x0, symName: __ZNSt3__16vectorImNS_9allocatorImEEE7__clearB8ue170006Ev, symObjAddr: 0x54C, symBinAddr: 0x100003688, symSize: 0x28 }
  - { offsetInCU: 0xA601, offset: 0xA601, size: 0x8, addend: 0x0, symName: __ZNKSt3__16vectorImNS_9allocatorImEEE17__annotate_deleteB8ue170006Ev, symObjAddr: 0x574, symBinAddr: 0x1000036B0, symSize: 0xB8 }
  - { offsetInCU: 0xA626, offset: 0xA626, size: 0x8, addend: 0x0, symName: __ZNSt3__116allocator_traitsINS_9allocatorImEEE10deallocateB8ue170006ERS2_Pmm, symObjAddr: 0x62C, symBinAddr: 0x100003768, symSize: 0x34 }
  - { offsetInCU: 0xA668, offset: 0xA668, size: 0x8, addend: 0x0, symName: __ZNSt3__16vectorImNS_9allocatorImEEE7__allocB8ue170006Ev, symObjAddr: 0x660, symBinAddr: 0x10000379C, symSize: 0x28 }
  - { offsetInCU: 0xA68D, offset: 0xA68D, size: 0x8, addend: 0x0, symName: __ZNKSt3__16vectorImNS_9allocatorImEEE8capacityB8ue170006Ev, symObjAddr: 0x688, symBinAddr: 0x1000037C4, symSize: 0x40 }
  - { offsetInCU: 0xA6B2, offset: 0xA6B2, size: 0x8, addend: 0x0, symName: __ZNSt3__16vectorImNS_9allocatorImEEE22__base_destruct_at_endB8ue170006EPm, symObjAddr: 0x6C8, symBinAddr: 0x100003804, symSize: 0x8C }
  - { offsetInCU: 0xA6F5, offset: 0xA6F5, size: 0x8, addend: 0x0, symName: __ZNSt3__116allocator_traitsINS_9allocatorImEEE7destroyB8ue170006ImvEEvRS2_PT_, symObjAddr: 0x754, symBinAddr: 0x100003890, symSize: 0x2C }
  - { offsetInCU: 0xA732, offset: 0xA732, size: 0x8, addend: 0x0, symName: __ZNSt3__19allocatorImE7destroyB8ue170006EPm, symObjAddr: 0x794, symBinAddr: 0x1000038D0, symSize: 0x14 }
  - { offsetInCU: 0xA765, offset: 0xA765, size: 0x8, addend: 0x0, symName: __ZNKSt3__16vectorImNS_9allocatorImEEE31__annotate_contiguous_containerB8ue170006EPKvS5_S5_S5_, symObjAddr: 0x7A8, symBinAddr: 0x1000038E4, symSize: 0x20 }
  - { offsetInCU: 0xA7B6, offset: 0xA7B6, size: 0x8, addend: 0x0, symName: __ZNKSt3__16vectorImNS_9allocatorImEEE4dataB8ue170006Ev, symObjAddr: 0x7C8, symBinAddr: 0x100003904, symSize: 0x28 }
  - { offsetInCU: 0xA7DB, offset: 0xA7DB, size: 0x8, addend: 0x0, symName: __ZNKSt3__16vectorImNS_9allocatorImEEE4sizeB8ue170006Ev, symObjAddr: 0x7F0, symBinAddr: 0x10000392C, symSize: 0x28 }
  - { offsetInCU: 0xA800, offset: 0xA800, size: 0x8, addend: 0x0, symName: __ZNSt3__19allocatorImE10deallocateB8ue170006EPmm, symObjAddr: 0x818, symBinAddr: 0x100003954, symSize: 0x40 }
  - { offsetInCU: 0xA841, offset: 0xA841, size: 0x8, addend: 0x0, symName: __ZNSt3__117__compressed_pairIPmNS_9allocatorImEEE6secondB8ue170006Ev, symObjAddr: 0x980, symBinAddr: 0x100003ABC, symSize: 0x24 }
  - { offsetInCU: 0xA866, offset: 0xA866, size: 0x8, addend: 0x0, symName: __ZNSt3__122__compressed_pair_elemINS_9allocatorImEELi1ELb1EE5__getB8ue170006Ev, symObjAddr: 0x9A4, symBinAddr: 0x100003AE0, symSize: 0x14 }
  - { offsetInCU: 0xA88B, offset: 0xA88B, size: 0x8, addend: 0x0, symName: __ZNKSt3__16vectorImNS_9allocatorImEEE9__end_capB8ue170006Ev, symObjAddr: 0x9B8, symBinAddr: 0x100003AF4, symSize: 0x28 }
  - { offsetInCU: 0xA8B0, offset: 0xA8B0, size: 0x8, addend: 0x0, symName: __ZNKSt3__117__compressed_pairIPmNS_9allocatorImEEE5firstB8ue170006Ev, symObjAddr: 0x9E0, symBinAddr: 0x100003B1C, symSize: 0x24 }
  - { offsetInCU: 0xA8D5, offset: 0xA8D5, size: 0x8, addend: 0x0, symName: __ZNKSt3__122__compressed_pair_elemIPmLi0ELb0EE5__getB8ue170006Ev, symObjAddr: 0xA04, symBinAddr: 0x100003B40, symSize: 0x14 }
  - { offsetInCU: 0xA8FA, offset: 0xA8FA, size: 0x8, addend: 0x0, symName: __ZNSt3__16vectorImNS_9allocatorImEEE9__end_capB8ue170006Ev, symObjAddr: 0xA18, symBinAddr: 0x100003B54, symSize: 0x28 }
  - { offsetInCU: 0xA924, offset: 0xA924, size: 0x8, addend: 0x0, symName: __ZNSt3__16vectorImNS_9allocatorImEEE22__construct_one_at_endB8ue170006IJmEEEvDpOT_, symObjAddr: 0xA40, symBinAddr: 0x100003B7C, symSize: 0x90 }
  - { offsetInCU: 0xA971, offset: 0xA971, size: 0x8, addend: 0x0, symName: __ZNSt3__16vectorImNS_9allocatorImEEE21__push_back_slow_pathImEEvOT_, symObjAddr: 0xAD0, symBinAddr: 0x100003C0C, symSize: 0xD8 }
  - { offsetInCU: 0xA9CE, offset: 0xA9CE, size: 0x8, addend: 0x0, symName: __ZNSt3__117__compressed_pairIPmNS_9allocatorImEEE5firstB8ue170006Ev, symObjAddr: 0xBA8, symBinAddr: 0x100003CE4, symSize: 0x24 }
  - { offsetInCU: 0xA9F3, offset: 0xA9F3, size: 0x8, addend: 0x0, symName: __ZNSt3__122__compressed_pair_elemIPmLi0ELb0EE5__getB8ue170006Ev, symObjAddr: 0xBCC, symBinAddr: 0x100003D08, symSize: 0x14 }
  - { offsetInCU: 0xAA31, offset: 0xAA31, size: 0x8, addend: 0x0, symName: __ZNSt3__16vectorImNS_9allocatorImEEE21_ConstructTransactionC1B8ue170006ERS3_m, symObjAddr: 0xBE0, symBinAddr: 0x100003D1C, symSize: 0x3C }
  - { offsetInCU: 0xAA78, offset: 0xAA78, size: 0x8, addend: 0x0, symName: __ZNSt3__116allocator_traitsINS_9allocatorImEEE9constructB8ue170006ImJmEvEEvRS2_PT_DpOT0_, symObjAddr: 0xC1C, symBinAddr: 0x100003D58, symSize: 0x34 }
  - { offsetInCU: 0xAACF, offset: 0xAACF, size: 0x8, addend: 0x0, symName: __ZNSt3__16vectorImNS_9allocatorImEEE21_ConstructTransactionD1B8ue170006Ev, symObjAddr: 0xC50, symBinAddr: 0x100003D8C, symSize: 0x2C }
  - { offsetInCU: 0xAAF8, offset: 0xAAF8, size: 0x8, addend: 0x0, symName: __ZNSt3__16vectorImNS_9allocatorImEEE21_ConstructTransactionC2B8ue170006ERS3_m, symObjAddr: 0xC7C, symBinAddr: 0x100003DB8, symSize: 0x44 }
  - { offsetInCU: 0xAB3F, offset: 0xAB3F, size: 0x8, addend: 0x0, symName: __ZNSt3__19allocatorImE9constructB8ue170006ImJmEEEvPT_DpOT0_, symObjAddr: 0xCC0, symBinAddr: 0x100003DFC, symSize: 0x28 }
  - { offsetInCU: 0xAB94, offset: 0xAB94, size: 0x8, addend: 0x0, symName: __ZNSt3__16vectorImNS_9allocatorImEEE21_ConstructTransactionD2B8ue170006Ev, symObjAddr: 0xCE8, symBinAddr: 0x100003E24, symSize: 0x20 }
  - { offsetInCU: 0xABBC, offset: 0xABBC, size: 0x8, addend: 0x0, symName: __ZNKSt3__16vectorImNS_9allocatorImEEE11__recommendB8ue170006Em, symObjAddr: 0xD08, symBinAddr: 0x100003E44, symSize: 0xB4 }
  - { offsetInCU: 0xAC10, offset: 0xAC10, size: 0x8, addend: 0x0, symName: __ZNSt3__114__split_bufferImRNS_9allocatorImEEEC1EmmS3_, symObjAddr: 0xDBC, symBinAddr: 0x100003EF8, symSize: 0x44 }
  - { offsetInCU: 0xAC65, offset: 0xAC65, size: 0x8, addend: 0x0, symName: __ZNSt3__114__split_bufferImRNS_9allocatorImEEED1Ev, symObjAddr: 0xF10, symBinAddr: 0x10000404C, symSize: 0x2C }
  - { offsetInCU: 0xAC8F, offset: 0xAC8F, size: 0x8, addend: 0x0, symName: __ZNKSt3__16vectorImNS_9allocatorImEEE8max_sizeEv, symObjAddr: 0xF3C, symBinAddr: 0x100004078, symSize: 0x60 }
  - { offsetInCU: 0xACB6, offset: 0xACB6, size: 0x8, addend: 0x0, symName: __ZNKSt3__16vectorImNS_9allocatorImEEE20__throw_length_errorB8ue170006Ev, symObjAddr: 0xF9C, symBinAddr: 0x1000040D8, symSize: 0x1C }
  - { offsetInCU: 0xACE5, offset: 0xACE5, size: 0x8, addend: 0x0, symName: __ZNSt3__116allocator_traitsINS_9allocatorImEEE8max_sizeB8ue170006IS2_vEEmRKS2_, symObjAddr: 0x1010, symBinAddr: 0x10000414C, symSize: 0x24 }
  - { offsetInCU: 0xAD13, offset: 0xAD13, size: 0x8, addend: 0x0, symName: __ZNKSt3__16vectorImNS_9allocatorImEEE7__allocB8ue170006Ev, symObjAddr: 0x1034, symBinAddr: 0x100004170, symSize: 0x28 }
  - { offsetInCU: 0xAD38, offset: 0xAD38, size: 0x8, addend: 0x0, symName: __ZNSt3__114numeric_limitsIlE3maxB8ue170006Ev, symObjAddr: 0x105C, symBinAddr: 0x100004198, symSize: 0x14 }
  - { offsetInCU: 0xAD56, offset: 0xAD56, size: 0x8, addend: 0x0, symName: __ZNKSt3__16__lessIvvEclB8ue170006ImmEEbRKT_RKT0_, symObjAddr: 0x10C4, symBinAddr: 0x100004200, symSize: 0x34 }
  - { offsetInCU: 0xADA9, offset: 0xADA9, size: 0x8, addend: 0x0, symName: __ZNKSt3__19allocatorImE8max_sizeB8ue170006Ev, symObjAddr: 0x10F8, symBinAddr: 0x100004234, symSize: 0x14 }
  - { offsetInCU: 0xADCE, offset: 0xADCE, size: 0x8, addend: 0x0, symName: __ZNKSt3__117__compressed_pairIPmNS_9allocatorImEEE6secondB8ue170006Ev, symObjAddr: 0x110C, symBinAddr: 0x100004248, symSize: 0x24 }
  - { offsetInCU: 0xADF3, offset: 0xADF3, size: 0x8, addend: 0x0, symName: __ZNKSt3__122__compressed_pair_elemINS_9allocatorImEELi1ELb1EE5__getB8ue170006Ev, symObjAddr: 0x1130, symBinAddr: 0x10000426C, symSize: 0x14 }
  - { offsetInCU: 0xAE18, offset: 0xAE18, size: 0x8, addend: 0x0, symName: __ZNSt3__123__libcpp_numeric_limitsIlLb1EE3maxB8ue170006Ev, symObjAddr: 0x1144, symBinAddr: 0x100004280, symSize: 0x8 }
  - { offsetInCU: 0xAE2C, offset: 0xAE2C, size: 0x8, addend: 0x0, symName: __ZNSt12length_errorC1B8ue170006EPKc, symObjAddr: 0x11B0, symBinAddr: 0x1000042EC, symSize: 0x34 }
  - { offsetInCU: 0xAE63, offset: 0xAE63, size: 0x8, addend: 0x0, symName: __ZNSt12length_errorC2B8ue170006EPKc, symObjAddr: 0x11E4, symBinAddr: 0x100004320, symSize: 0x4C }
  - { offsetInCU: 0xAE9A, offset: 0xAE9A, size: 0x8, addend: 0x0, symName: __ZNSt3__114__split_bufferImRNS_9allocatorImEEEC2EmmS3_, symObjAddr: 0x1284, symBinAddr: 0x1000043C0, symSize: 0xD4 }
  - { offsetInCU: 0xAF0C, offset: 0xAF0C, size: 0x8, addend: 0x0, symName: __ZNSt3__117__compressed_pairIPmRNS_9allocatorImEEEC1B8ue170006IDnS4_EEOT_OT0_, symObjAddr: 0x1358, symBinAddr: 0x100004494, symSize: 0x3C }
  - { offsetInCU: 0xAF63, offset: 0xAF63, size: 0x8, addend: 0x0, symName: __ZNSt3__114__split_bufferImRNS_9allocatorImEEE7__allocB8ue170006Ev, symObjAddr: 0x13D4, symBinAddr: 0x100004510, symSize: 0x28 }
  - { offsetInCU: 0xAF88, offset: 0xAF88, size: 0x8, addend: 0x0, symName: __ZNSt3__114__split_bufferImRNS_9allocatorImEEE9__end_capB8ue170006Ev, symObjAddr: 0x13FC, symBinAddr: 0x100004538, symSize: 0x28 }
  - { offsetInCU: 0xAFAD, offset: 0xAFAD, size: 0x8, addend: 0x0, symName: __ZNSt3__117__compressed_pairIPmRNS_9allocatorImEEEC2B8ue170006IDnS4_EEOT_OT0_, symObjAddr: 0x1424, symBinAddr: 0x100004560, symSize: 0x48 }
  - { offsetInCU: 0xB004, offset: 0xB004, size: 0x8, addend: 0x0, symName: __ZNSt3__122__compressed_pair_elemIRNS_9allocatorImEELi1ELb0EEC2B8ue170006IS3_vEEOT_, symObjAddr: 0x146C, symBinAddr: 0x1000045A8, symSize: 0x20 }
  - { offsetInCU: 0xB045, offset: 0xB045, size: 0x8, addend: 0x0, symName: __ZNSt3__19allocatorImE8allocateB8ue170006Em, symObjAddr: 0x148C, symBinAddr: 0x1000045C8, symSize: 0x58 }
  - { offsetInCU: 0xB078, offset: 0xB078, size: 0x8, addend: 0x0, symName: __ZNSt3__117__compressed_pairIPmRNS_9allocatorImEEE6secondB8ue170006Ev, symObjAddr: 0x15C8, symBinAddr: 0x100004704, symSize: 0x28 }
  - { offsetInCU: 0xB09D, offset: 0xB09D, size: 0x8, addend: 0x0, symName: __ZNSt3__122__compressed_pair_elemIRNS_9allocatorImEELi1ELb0EE5__getB8ue170006Ev, symObjAddr: 0x15F0, symBinAddr: 0x10000472C, symSize: 0x18 }
  - { offsetInCU: 0xB0C2, offset: 0xB0C2, size: 0x8, addend: 0x0, symName: __ZNSt3__117__compressed_pairIPmRNS_9allocatorImEEE5firstB8ue170006Ev, symObjAddr: 0x1608, symBinAddr: 0x100004744, symSize: 0x24 }
  - { offsetInCU: 0xB0E7, offset: 0xB0E7, size: 0x8, addend: 0x0, symName: __ZNSt3__116reverse_iteratorIPmEC1B8ue170006ES1_, symObjAddr: 0x16A4, symBinAddr: 0x1000047E0, symSize: 0x34 }
  - { offsetInCU: 0xB11E, offset: 0xB11E, size: 0x8, addend: 0x0, symName: __ZNKSt3__116reverse_iteratorIPmE4baseB8ue170006Ev, symObjAddr: 0x16D8, symBinAddr: 0x100004814, symSize: 0x18 }
  - { offsetInCU: 0xB143, offset: 0xB143, size: 0x8, addend: 0x0, symName: __ZNKSt3__16vectorImNS_9allocatorImEEE14__annotate_newB8ue170006Em, symObjAddr: 0x172C, symBinAddr: 0x100004868, symSize: 0xAC }
  - { offsetInCU: 0xB19A, offset: 0xB19A, size: 0x8, addend: 0x0, symName: __ZNKSt3__111__move_loopINS_17_ClassicAlgPolicyEEclB8ue170006INS_16reverse_iteratorIPmEES6_S6_EENS_4pairIT_T1_EES8_T0_S9_, symObjAddr: 0x1AC8, symBinAddr: 0x100004C04, symSize: 0xA0 }
  - { offsetInCU: 0xB204, offset: 0xB204, size: 0x8, addend: 0x0, symName: __ZNSt3__18_IterOpsINS_17_ClassicAlgPolicyEE11__iter_moveB8ue170006IRNS_16reverse_iteratorIPmEEEENS_9enable_ifIXsr12is_referenceIDTdeclsr3stdE7declvalIRT_EEEEE5valueEDTclsr3stdE4movedeclsr3stdE7declvalISA_EEEEE4typeEOS9_, symObjAddr: 0x1CFC, symBinAddr: 0x100004E38, symSize: 0x28 }
  - { offsetInCU: 0xB230, offset: 0xB230, size: 0x8, addend: 0x0, symName: __ZNKSt3__116reverse_iteratorIPmEdeB8ue170006Ev, symObjAddr: 0x1D24, symBinAddr: 0x100004E60, symSize: 0x28 }
  - { offsetInCU: 0xB263, offset: 0xB263, size: 0x8, addend: 0x0, symName: __ZNSt3__116reverse_iteratorIPmEppB8ue170006Ev, symObjAddr: 0x1D4C, symBinAddr: 0x100004E88, symSize: 0x20 }
  - { offsetInCU: 0xB288, offset: 0xB288, size: 0x8, addend: 0x0, symName: __ZNSt3__18_IterOpsINS_17_ClassicAlgPolicyEE25__validate_iter_referenceB8ue170006IRNS_16reverse_iteratorIPmEEEEvv, symObjAddr: 0x1D6C, symBinAddr: 0x100004EA8, symSize: 0x4 }
  - { offsetInCU: 0xB2A6, offset: 0xB2A6, size: 0x8, addend: 0x0, symName: __ZNSt3__118__unwrap_iter_implINS_16reverse_iteratorIPmEELb0EE8__unwrapB8ue170006ES3_, symObjAddr: 0x1D70, symBinAddr: 0x100004EAC, symSize: 0x24 }
  - { offsetInCU: 0xB2CE, offset: 0xB2CE, size: 0x8, addend: 0x0, symName: __ZNSt3__14pairINS_16reverse_iteratorIPmEES3_EC1B8ue170006IS3_S3_LPv0EEEOT_OT0_, symObjAddr: 0x1D94, symBinAddr: 0x100004ED0, symSize: 0x3C }
  - { offsetInCU: 0xB32B, offset: 0xB32B, size: 0x8, addend: 0x0, symName: __ZNSt3__14pairINS_16reverse_iteratorIPmEES3_EC2B8ue170006IS3_S3_LPv0EEEOT_OT0_, symObjAddr: 0x1DD0, symBinAddr: 0x100004F0C, symSize: 0x34 }
  - { offsetInCU: 0xB388, offset: 0xB388, size: 0x8, addend: 0x0, symName: __ZNSt3__118__unwrap_iter_implINS_16reverse_iteratorIPmEELb0EE8__rewrapB8ue170006ES3_S3_, symObjAddr: 0x1E04, symBinAddr: 0x100004F40, symSize: 0x2C }
  - { offsetInCU: 0xB3B6, offset: 0xB3B6, size: 0x8, addend: 0x0, symName: __ZNSt3__116reverse_iteratorIPmEC2B8ue170006ES1_, symObjAddr: 0x1E30, symBinAddr: 0x100004F6C, symSize: 0x28 }
  - { offsetInCU: 0xB3ED, offset: 0xB3ED, size: 0x8, addend: 0x0, symName: __ZNSt3__114__split_bufferImRNS_9allocatorImEEED2Ev, symObjAddr: 0x1E58, symBinAddr: 0x100004F94, symSize: 0x8C }
  - { offsetInCU: 0xB418, offset: 0xB418, size: 0x8, addend: 0x0, symName: __ZNSt3__114__split_bufferImRNS_9allocatorImEEE5clearB8ue170006Ev, symObjAddr: 0x1EE4, symBinAddr: 0x100005020, symSize: 0x28 }
  - { offsetInCU: 0xB43D, offset: 0xB43D, size: 0x8, addend: 0x0, symName: __ZNKSt3__114__split_bufferImRNS_9allocatorImEEE8capacityB8ue170006Ev, symObjAddr: 0x1F0C, symBinAddr: 0x100005048, symSize: 0x40 }
  - { offsetInCU: 0xB462, offset: 0xB462, size: 0x8, addend: 0x0, symName: __ZNSt3__114__split_bufferImRNS_9allocatorImEEE17__destruct_at_endB8ue170006EPm, symObjAddr: 0x1F4C, symBinAddr: 0x100005088, symSize: 0x2C }
  - { offsetInCU: 0xB494, offset: 0xB494, size: 0x8, addend: 0x0, symName: __ZNSt3__114__split_bufferImRNS_9allocatorImEEE17__destruct_at_endB8ue170006EPmNS_17integral_constantIbLb0EEE, symObjAddr: 0x1F78, symBinAddr: 0x1000050B4, symSize: 0x80 }
  - { offsetInCU: 0xB4D4, offset: 0xB4D4, size: 0x8, addend: 0x0, symName: __ZNKSt3__114__split_bufferImRNS_9allocatorImEEE9__end_capB8ue170006Ev, symObjAddr: 0x1FF8, symBinAddr: 0x100005134, symSize: 0x28 }
  - { offsetInCU: 0xB4F9, offset: 0xB4F9, size: 0x8, addend: 0x0, symName: __ZNKSt3__117__compressed_pairIPmRNS_9allocatorImEEE5firstB8ue170006Ev, symObjAddr: 0x2020, symBinAddr: 0x10000515C, symSize: 0x24 }
  - { offsetInCU: 0xB51D, offset: 0xB51D, size: 0x8, addend: 0x0, symName: __ZNKSt3__19basic_iosIcNS_11char_traitsIcEEE5widenB8ue170006Ec, symObjAddr: 0x2044, symBinAddr: 0x100005180, symSize: 0x84 }
  - { offsetInCU: 0xB58A, offset: 0xB58A, size: 0x8, addend: 0x0, symName: __ZNKSt3__15ctypeIcE5widenB8ue170006Ec, symObjAddr: 0x20F4, symBinAddr: 0x100005230, symSize: 0x38 }
  - { offsetInCU: 0x4ABA, offset: 0x10103, size: 0x8, addend: 0x0, symName: __ZN16InverseExceptionC2Ei, symObjAddr: 0x0, symBinAddr: 0x100005268, symSize: 0x5C }
  - { offsetInCU: 0x4AF3, offset: 0x1013C, size: 0x8, addend: 0x0, symName: __ZNSt9exceptionC2B8ue170006Ev, symObjAddr: 0x5C, symBinAddr: 0x1000052C4, symSize: 0x24 }
  - { offsetInCU: 0x4B1C, offset: 0x10165, size: 0x8, addend: 0x0, symName: __ZNSt3__112basic_stringIcNS_11char_traitsIcEENS_9allocatorIcEEEC1B8ue170006Ev, symObjAddr: 0x80, symBinAddr: 0x1000052E8, symSize: 0x2C }
  - { offsetInCU: 0x4B45, offset: 0x1018E, size: 0x8, addend: 0x0, symName: __ZN16InverseExceptionC1Ei, symObjAddr: 0xAC, symBinAddr: 0x100005314, symSize: 0x34 }
  - { offsetInCU: 0x4B7E, offset: 0x101C7, size: 0x8, addend: 0x0, symName: __ZN16InverseExceptionD1Ev, symObjAddr: 0xE0, symBinAddr: 0x100005348, symSize: 0x2C }
  - { offsetInCU: 0x4BA9, offset: 0x101F2, size: 0x8, addend: 0x0, symName: __ZN16InverseExceptionD0Ev, symObjAddr: 0x10C, symBinAddr: 0x100005374, symSize: 0x30 }
  - { offsetInCU: 0x4BD4, offset: 0x1021D, size: 0x8, addend: 0x0, symName: __ZNSt3__112basic_stringIcNS_11char_traitsIcEENS_9allocatorIcEEEC2B8ue170006Ev, symObjAddr: 0x13C, symBinAddr: 0x1000053A4, symSize: 0x48 }
  - { offsetInCU: 0x4C02, offset: 0x1024B, size: 0x8, addend: 0x0, symName: __ZNSt3__117__compressed_pairINS_12basic_stringIcNS_11char_traitsIcEENS_9allocatorIcEEE5__repES5_EC1B8ue170006INS_18__default_init_tagESA_EEOT_OT0_, symObjAddr: 0x184, symBinAddr: 0x1000053EC, symSize: 0x3C }
  - { offsetInCU: 0x4C59, offset: 0x102A2, size: 0x8, addend: 0x0, symName: __ZNSt3__112basic_stringIcNS_11char_traitsIcEENS_9allocatorIcEEE14__default_initB8ue170006Ev, symObjAddr: 0x1CC, symBinAddr: 0x100005428, symSize: 0x40 }
  - { offsetInCU: 0x4C7E, offset: 0x102C7, size: 0x8, addend: 0x0, symName: __ZNSt3__117__compressed_pairINS_12basic_stringIcNS_11char_traitsIcEENS_9allocatorIcEEE5__repES5_EC2B8ue170006INS_18__default_init_tagESA_EEOT_OT0_, symObjAddr: 0x20C, symBinAddr: 0x100005468, symSize: 0x3C }
  - { offsetInCU: 0x4CD5, offset: 0x1031E, size: 0x8, addend: 0x0, symName: __ZNSt3__122__compressed_pair_elemINS_12basic_stringIcNS_11char_traitsIcEENS_9allocatorIcEEE5__repELi0ELb0EEC2B8ue170006ENS_18__default_init_tagE, symObjAddr: 0x248, symBinAddr: 0x1000054A4, symSize: 0x14 }
  - { offsetInCU: 0x4D09, offset: 0x10352, size: 0x8, addend: 0x0, symName: __ZNSt3__122__compressed_pair_elemINS_9allocatorIcEELi1ELb1EEC2B8ue170006ENS_18__default_init_tagE, symObjAddr: 0x25C, symBinAddr: 0x1000054B8, symSize: 0x2C }
  - { offsetInCU: 0x4D3D, offset: 0x10386, size: 0x8, addend: 0x0, symName: __ZNSt3__19allocatorIcEC2B8ue170006Ev, symObjAddr: 0x288, symBinAddr: 0x1000054E4, symSize: 0x2C }
  - { offsetInCU: 0x4D66, offset: 0x103AF, size: 0x8, addend: 0x0, symName: __ZNSt3__116__non_trivial_ifILb1ENS_9allocatorIcEEEC2B8ue170006Ev, symObjAddr: 0x2B4, symBinAddr: 0x100005510, symSize: 0x14 }
  - { offsetInCU: 0x4D8F, offset: 0x103D8, size: 0x8, addend: 0x0, symName: __ZNSt3__117__compressed_pairINS_12basic_stringIcNS_11char_traitsIcEENS_9allocatorIcEEE5__repES5_E5firstB8ue170006Ev, symObjAddr: 0x2C8, symBinAddr: 0x100005524, symSize: 0x24 }
  - { offsetInCU: 0x4DB4, offset: 0x103FD, size: 0x8, addend: 0x0, symName: __ZNSt3__122__compressed_pair_elemINS_12basic_stringIcNS_11char_traitsIcEENS_9allocatorIcEEE5__repELi0ELb0EE5__getB8ue170006Ev, symObjAddr: 0x2EC, symBinAddr: 0x100005548, symSize: 0x14 }
  - { offsetInCU: 0x4DD9, offset: 0x10422, size: 0x8, addend: 0x0, symName: __ZN16InverseExceptionD2Ev, symObjAddr: 0x300, symBinAddr: 0x10000555C, symSize: 0x48 }
  - { offsetInCU: 0x26, offset: 0x1048C, size: 0x8, addend: 0x0, symName: __ZN8ECMPointC2Eiib, symObjAddr: 0x0, symBinAddr: 0x1000055A4, symSize: 0x44 }
  - { offsetInCU: 0x51, offset: 0x104B7, size: 0x8, addend: 0x0, symName: __ZN8ECMPointC2Eiib, symObjAddr: 0x0, symBinAddr: 0x1000055A4, symSize: 0x44 }
  - { offsetInCU: 0xA6, offset: 0x1050C, size: 0x8, addend: 0x0, symName: __ZN8ECMPointC1Eiib, symObjAddr: 0x44, symBinAddr: 0x1000055E8, symSize: 0x50 }
  - { offsetInCU: 0xFB, offset: 0x10561, size: 0x8, addend: 0x0, symName: __ZNK8ECMPoint5isInfEv, symObjAddr: 0x94, symBinAddr: 0x100005638, symSize: 0x1C }
  - { offsetInCU: 0x122, offset: 0x10588, size: 0x8, addend: 0x0, symName: __ZNK8ECMPoint7equalToES_, symObjAddr: 0xB0, symBinAddr: 0x100005654, symSize: 0xD8 }
  - { offsetInCU: 0x157, offset: 0x105BD, size: 0x8, addend: 0x0, symName: __ZNK8ECMPoint4getXEv, symObjAddr: 0x188, symBinAddr: 0x10000572C, symSize: 0x18 }
  - { offsetInCU: 0x17E, offset: 0x105E4, size: 0x8, addend: 0x0, symName: __ZNK8ECMPoint4getYEv, symObjAddr: 0x1A0, symBinAddr: 0x100005744, symSize: 0x18 }
  - { offsetInCU: 0x4A, offset: 0x1065F, size: 0x8, addend: 0x0, symName: __ZNSt3__16ignoreE, symObjAddr: 0x1650, symBinAddr: 0x100007CB6, symSize: 0x0 }
  - { offsetInCU: 0x1192, offset: 0x117A7, size: 0x8, addend: 0x0, symName: __ZNSt3__110make_tupleB8ue170006IJRiiiEEENS_5tupleIJDpNS_18__unwrap_ref_decayIT_E4typeEEEEDpOS4_, symObjAddr: 0x20C, symBinAddr: 0x100005968, symSize: 0x94 }
  - { offsetInCU: 0x11F3, offset: 0x11808, size: 0x8, addend: 0x0, symName: __ZNSt3__13tieB8ue170006IJiiiEEENS_5tupleIJDpRT_EEES4_, symObjAddr: 0x2A0, symBinAddr: 0x1000059FC, symSize: 0x40 }
  - { offsetInCU: 0x1799, offset: 0x11DAE, size: 0x8, addend: 0x0, symName: __ZNSt3__110make_tupleB8ue170006IJRiiS1_EEENS_5tupleIJDpNS_18__unwrap_ref_decayIT_E4typeEEEEDpOS4_, symObjAddr: 0x31C, symBinAddr: 0x100005A78, symSize: 0x94 }
  - { offsetInCU: 0x17FA, offset: 0x11E0F, size: 0x8, addend: 0x0, symName: __ZNSt3__13tieB8ue170006IJiiKNS_10__ignore_tIhEEEEENS_5tupleIJDpRT_EEES7_, symObjAddr: 0x500, symBinAddr: 0x100005C5C, symSize: 0x40 }
  - { offsetInCU: 0x1C0A, offset: 0x1221F, size: 0x8, addend: 0x0, symName: __ZNSt3__127__memberwise_forward_assignB8ue170006INS_5tupleIJRiS2_S2_EEENS1_IJiiiEEEJiiiEJLm0ELm1ELm2EEEEvRT_OT0_NS_13__tuple_typesIJDpT1_EEENS_15__tuple_indicesIJXspT2_EEEE, symObjAddr: 0x129C, symBinAddr: 0x100006954, symSize: 0xB0 }
  - { offsetInCU: 0x1C98, offset: 0x122AD, size: 0x8, addend: 0x0, symName: __ZNSt3__19__swallowB8ue170006IJiiiEEEvDpOT_, symObjAddr: 0x1358, symBinAddr: 0x100006A04, symSize: 0x18 }
  - { offsetInCU: 0x1CEA, offset: 0x122FF, size: 0x8, addend: 0x0, symName: __ZNSt3__13getB8ue170006ILm0EJiiiEEERNS_13tuple_elementIXT_ENS_5tupleIJDpT0_EEEE4typeERS5_, symObjAddr: 0x1370, symBinAddr: 0x100006A1C, symSize: 0x24 }
  - { offsetInCU: 0x1D36, offset: 0x1234B, size: 0x8, addend: 0x0, symName: __ZNSt3__13getB8ue170006ILm0EJRiS1_S1_EEERNS_13tuple_elementIXT_ENS_5tupleIJDpT0_EEEE4typeERS6_, symObjAddr: 0x1394, symBinAddr: 0x100006A40, symSize: 0x24 }
  - { offsetInCU: 0x1D82, offset: 0x12397, size: 0x8, addend: 0x0, symName: __ZNSt3__13getB8ue170006ILm1EJiiiEEERNS_13tuple_elementIXT_ENS_5tupleIJDpT0_EEEE4typeERS5_, symObjAddr: 0x13B8, symBinAddr: 0x100006A64, symSize: 0x28 }
  - { offsetInCU: 0x1DCE, offset: 0x123E3, size: 0x8, addend: 0x0, symName: __ZNSt3__13getB8ue170006ILm1EJRiS1_S1_EEERNS_13tuple_elementIXT_ENS_5tupleIJDpT0_EEEE4typeERS6_, symObjAddr: 0x13E0, symBinAddr: 0x100006A8C, symSize: 0x28 }
  - { offsetInCU: 0x1E1A, offset: 0x1242F, size: 0x8, addend: 0x0, symName: __ZNSt3__13getB8ue170006ILm2EJiiiEEERNS_13tuple_elementIXT_ENS_5tupleIJDpT0_EEEE4typeERS5_, symObjAddr: 0x1408, symBinAddr: 0x100006AB4, symSize: 0x28 }
  - { offsetInCU: 0x1E66, offset: 0x1247B, size: 0x8, addend: 0x0, symName: __ZNSt3__13getB8ue170006ILm2EJRiS1_S1_EEERNS_13tuple_elementIXT_ENS_5tupleIJDpT0_EEEE4typeERS6_, symObjAddr: 0x1430, symBinAddr: 0x100006ADC, symSize: 0x28 }
  - { offsetInCU: 0x1EB2, offset: 0x124C7, size: 0x8, addend: 0x0, symName: __ZNSt3__127__memberwise_forward_assignB8ue170006INS_5tupleIJRiS2_RKNS_10__ignore_tIhEEEEENS1_IJiiiEEEJiiiEJLm0ELm1ELm2EEEEvRT_OT0_NS_13__tuple_typesIJDpT1_EEENS_15__tuple_indicesIJXspT2_EEEE, symObjAddr: 0x14DC, symBinAddr: 0x100006B88, symSize: 0xA8 }
  - { offsetInCU: 0x1F40, offset: 0x12555, size: 0x8, addend: 0x0, symName: __ZNSt3__13getB8ue170006ILm0EJRiS1_RKNS_10__ignore_tIhEEEEERNS_13tuple_elementIXT_ENS_5tupleIJDpT0_EEEE4typeERSA_, symObjAddr: 0x1584, symBinAddr: 0x100006C30, symSize: 0x24 }
  - { offsetInCU: 0x1F8C, offset: 0x125A1, size: 0x8, addend: 0x0, symName: __ZNSt3__13getB8ue170006ILm1EJRiS1_RKNS_10__ignore_tIhEEEEERNS_13tuple_elementIXT_ENS_5tupleIJDpT0_EEEE4typeERSA_, symObjAddr: 0x15A8, symBinAddr: 0x100006C54, symSize: 0x28 }
  - { offsetInCU: 0x1FD8, offset: 0x125ED, size: 0x8, addend: 0x0, symName: __ZNSt3__13getB8ue170006ILm2EJRiS1_RKNS_10__ignore_tIhEEEEERNS_13tuple_elementIXT_ENS_5tupleIJDpT0_EEEE4typeERSA_, symObjAddr: 0x15D0, symBinAddr: 0x100006C7C, symSize: 0x28 }
  - { offsetInCU: 0x3F2B, offset: 0x14540, size: 0x8, addend: 0x0, symName: __ZN8ECMCurveC2Eii, symObjAddr: 0x0, symBinAddr: 0x10000575C, symSize: 0x2C }
  - { offsetInCU: 0x3F72, offset: 0x14587, size: 0x8, addend: 0x0, symName: __ZN8ECMCurveC1Eii, symObjAddr: 0x2C, symBinAddr: 0x100005788, symSize: 0x3C }
  - { offsetInCU: 0x3FB9, offset: 0x145CE, size: 0x8, addend: 0x0, symName: __ZNK8ECMCurve3gcdEii, symObjAddr: 0x68, symBinAddr: 0x1000057C4, symSize: 0x1A4 }
  - { offsetInCU: 0x40CB, offset: 0x146E0, size: 0x8, addend: 0x0, symName: __ZNSt3__15tupleIJRiS1_S1_EEaSB8ue170006IJiiiELi0EEERS2_ONS0_IJDpT_EEE, symObjAddr: 0x2E0, symBinAddr: 0x100005A3C, symSize: 0x3C }
  - { offsetInCU: 0x411A, offset: 0x1472F, size: 0x8, addend: 0x0, symName: __ZN8ECMCurve7inverseEi, symObjAddr: 0x3B0, symBinAddr: 0x100005B0C, symSize: 0x150 }
  - { offsetInCU: 0x41C5, offset: 0x147DA, size: 0x8, addend: 0x0, symName: __ZNSt3__15tupleIJRiS1_RKNS_10__ignore_tIhEEEEaSB8ue170006IJiiiELi0EEERS6_ONS0_IJDpT_EEE, symObjAddr: 0x540, symBinAddr: 0x100005C9C, symSize: 0x34 }
  - { offsetInCU: 0x4214, offset: 0x14829, size: 0x8, addend: 0x0, symName: __ZN8ECMCurve6modpowEii, symObjAddr: 0x5A0, symBinAddr: 0x100005CD0, symSize: 0x110 }
  - { offsetInCU: 0x4265, offset: 0x1487A, size: 0x8, addend: 0x0, symName: __ZN8ECMCurve3addE8ECMPointS0_, symObjAddr: 0x6B0, symBinAddr: 0x100005DE0, symSize: 0x3C8 }
  - { offsetInCU: 0x4304, offset: 0x14919, size: 0x8, addend: 0x0, symName: __ZN8ECMCurve4multEi8ECMPoint, symObjAddr: 0xA78, symBinAddr: 0x1000061A8, symSize: 0x1FC }
  - { offsetInCU: 0x435E, offset: 0x14973, size: 0x8, addend: 0x0, symName: __ZNSt3__15tupleIJiiiEEC1B8ue170006IJRiiiELi0EEEDpOT_, symObjAddr: 0xC74, symBinAddr: 0x1000063A4, symSize: 0x44 }
  - { offsetInCU: 0x43CF, offset: 0x149E4, size: 0x8, addend: 0x0, symName: __ZNSt3__15tupleIJiiiEEC2B8ue170006IJRiiiELi0EEEDpOT_, symObjAddr: 0xCB8, symBinAddr: 0x1000063E8, symSize: 0x44 }
  - { offsetInCU: 0x4440, offset: 0x14A55, size: 0x8, addend: 0x0, symName: __ZNSt3__112__tuple_implINS_15__tuple_indicesIJLm0ELm1ELm2EEEEJiiiEEC1B8ue170006IJLm0ELm1ELm2EEJiiiEJEJEJRiiiEEENS1_IJXspT_EEEENS_13__tuple_typesIJDpT0_EEENS1_IJXspT1_EEEENS7_IJDpT2_EEEDpOT3_, symObjAddr: 0xCFC, symBinAddr: 0x10000642C, symSize: 0x44 }
  - { offsetInCU: 0x450E, offset: 0x14B23, size: 0x8, addend: 0x0, symName: __ZNSt3__112__tuple_implINS_15__tuple_indicesIJLm0ELm1ELm2EEEEJiiiEEC2B8ue170006IJLm0ELm1ELm2EEJiiiEJEJEJRiiiEEENS1_IJXspT_EEEENS_13__tuple_typesIJDpT0_EEENS1_IJXspT1_EEEENS7_IJDpT2_EEEDpOT3_, symObjAddr: 0xD40, symBinAddr: 0x100006470, symSize: 0x5C }
  - { offsetInCU: 0x45DC, offset: 0x14BF1, size: 0x8, addend: 0x0, symName: __ZNSt3__112__tuple_leafILm0EiLb0EEC2B8ue170006IRivEEOT_, symObjAddr: 0xD9C, symBinAddr: 0x1000064CC, symSize: 0x24 }
  - { offsetInCU: 0x461E, offset: 0x14C33, size: 0x8, addend: 0x0, symName: __ZNSt3__112__tuple_leafILm1EiLb0EEC2B8ue170006IivEEOT_, symObjAddr: 0xDC0, symBinAddr: 0x1000064F0, symSize: 0x24 }
  - { offsetInCU: 0x4660, offset: 0x14C75, size: 0x8, addend: 0x0, symName: __ZNSt3__112__tuple_leafILm2EiLb0EEC2B8ue170006IivEEOT_, symObjAddr: 0xDE4, symBinAddr: 0x100006514, symSize: 0x24 }
  - { offsetInCU: 0x46A2, offset: 0x14CB7, size: 0x8, addend: 0x0, symName: __ZNSt3__15tupleIJRiS1_S1_EEC1B8ue170006INS_4_AndELi0EEES1_S1_S1_, symObjAddr: 0xE08, symBinAddr: 0x100006538, symSize: 0x44 }
  - { offsetInCU: 0x4708, offset: 0x14D1D, size: 0x8, addend: 0x0, symName: __ZNSt3__15tupleIJRiS1_S1_EEC2B8ue170006INS_4_AndELi0EEES1_S1_S1_, symObjAddr: 0xE4C, symBinAddr: 0x10000657C, symSize: 0x44 }
  - { offsetInCU: 0x476E, offset: 0x14D83, size: 0x8, addend: 0x0, symName: __ZNSt3__112__tuple_implINS_15__tuple_indicesIJLm0ELm1ELm2EEEEJRiS3_S3_EEC1B8ue170006IJLm0ELm1ELm2EEJS3_S3_S3_EJEJEJS3_S3_S3_EEENS1_IJXspT_EEEENS_13__tuple_typesIJDpT0_EEENS1_IJXspT1_EEEENS7_IJDpT2_EEEDpOT3_, symObjAddr: 0xE90, symBinAddr: 0x1000065C0, symSize: 0x44 }
  - { offsetInCU: 0x483C, offset: 0x14E51, size: 0x8, addend: 0x0, symName: __ZNSt3__112__tuple_implINS_15__tuple_indicesIJLm0ELm1ELm2EEEEJRiS3_S3_EEC2B8ue170006IJLm0ELm1ELm2EEJS3_S3_S3_EJEJEJS3_S3_S3_EEENS1_IJXspT_EEEENS_13__tuple_typesIJDpT0_EEENS1_IJXspT1_EEEENS7_IJDpT2_EEEDpOT3_, symObjAddr: 0xED4, symBinAddr: 0x100006604, symSize: 0x5C }
  - { offsetInCU: 0x490A, offset: 0x14F1F, size: 0x8, addend: 0x0, symName: __ZNSt3__112__tuple_leafILm0ERiLb0EEC2B8ue170006IS1_vEEOT_, symObjAddr: 0xF30, symBinAddr: 0x100006660, symSize: 0x20 }
  - { offsetInCU: 0x494C, offset: 0x14F61, size: 0x8, addend: 0x0, symName: __ZNSt3__112__tuple_leafILm1ERiLb0EEC2B8ue170006IS1_vEEOT_, symObjAddr: 0xF50, symBinAddr: 0x100006680, symSize: 0x20 }
  - { offsetInCU: 0x498E, offset: 0x14FA3, size: 0x8, addend: 0x0, symName: __ZNSt3__112__tuple_leafILm2ERiLb0EEC2B8ue170006IS1_vEEOT_, symObjAddr: 0xF70, symBinAddr: 0x1000066A0, symSize: 0x20 }
  - { offsetInCU: 0x49D0, offset: 0x14FE5, size: 0x8, addend: 0x0, symName: __ZNSt3__15tupleIJiiiEEC1B8ue170006IJRiiS3_ELi0EEEDpOT_, symObjAddr: 0xF90, symBinAddr: 0x1000066C0, symSize: 0x44 }
  - { offsetInCU: 0x4A41, offset: 0x15056, size: 0x8, addend: 0x0, symName: __ZNSt3__15tupleIJiiiEEC2B8ue170006IJRiiS3_ELi0EEEDpOT_, symObjAddr: 0xFD4, symBinAddr: 0x100006704, symSize: 0x44 }
  - { offsetInCU: 0x4AB2, offset: 0x150C7, size: 0x8, addend: 0x0, symName: __ZNSt3__112__tuple_implINS_15__tuple_indicesIJLm0ELm1ELm2EEEEJiiiEEC1B8ue170006IJLm0ELm1ELm2EEJiiiEJEJEJRiiS5_EEENS1_IJXspT_EEEENS_13__tuple_typesIJDpT0_EEENS1_IJXspT1_EEEENS7_IJDpT2_EEEDpOT3_, symObjAddr: 0x1018, symBinAddr: 0x100006748, symSize: 0x44 }
  - { offsetInCU: 0x4B80, offset: 0x15195, size: 0x8, addend: 0x0, symName: __ZNSt3__112__tuple_implINS_15__tuple_indicesIJLm0ELm1ELm2EEEEJiiiEEC2B8ue170006IJLm0ELm1ELm2EEJiiiEJEJEJRiiS5_EEENS1_IJXspT_EEEENS_13__tuple_typesIJDpT0_EEENS1_IJXspT1_EEEENS7_IJDpT2_EEEDpOT3_, symObjAddr: 0x105C, symBinAddr: 0x10000678C, symSize: 0x5C }
  - { offsetInCU: 0x4C4E, offset: 0x15263, size: 0x8, addend: 0x0, symName: __ZNSt3__112__tuple_leafILm2EiLb0EEC2B8ue170006IRivEEOT_, symObjAddr: 0x10B8, symBinAddr: 0x1000067E8, symSize: 0x24 }
  - { offsetInCU: 0x4C90, offset: 0x152A5, size: 0x8, addend: 0x0, symName: __ZNSt3__15tupleIJRiS1_RKNS_10__ignore_tIhEEEEC1B8ue170006INS_4_AndELi0EEES1_S1_S5_, symObjAddr: 0x10DC, symBinAddr: 0x10000680C, symSize: 0x44 }
  - { offsetInCU: 0x4CF6, offset: 0x1530B, size: 0x8, addend: 0x0, symName: __ZNSt3__15tupleIJRiS1_RKNS_10__ignore_tIhEEEEC2B8ue170006INS_4_AndELi0EEES1_S1_S5_, symObjAddr: 0x1120, symBinAddr: 0x100006850, symSize: 0x44 }
  - { offsetInCU: 0x4D5C, offset: 0x15371, size: 0x8, addend: 0x0, symName: __ZNSt3__112__tuple_implINS_15__tuple_indicesIJLm0ELm1ELm2EEEEJRiS3_RKNS_10__ignore_tIhEEEEC1B8ue170006IJLm0ELm1ELm2EEJS3_S3_S7_EJEJEJS3_S3_S7_EEENS1_IJXspT_EEEENS_13__tuple_typesIJDpT0_EEENS1_IJXspT1_EEEENSB_IJDpT2_EEEDpOT3_, symObjAddr: 0x1164, symBinAddr: 0x100006894, symSize: 0x44 }
  - { offsetInCU: 0x4E2A, offset: 0x1543F, size: 0x8, addend: 0x0, symName: __ZNSt3__112__tuple_implINS_15__tuple_indicesIJLm0ELm1ELm2EEEEJRiS3_RKNS_10__ignore_tIhEEEEC2B8ue170006IJLm0ELm1ELm2EEJS3_S3_S7_EJEJEJS3_S3_S7_EEENS1_IJXspT_EEEENS_13__tuple_typesIJDpT0_EEENS1_IJXspT1_EEEENSB_IJDpT2_EEEDpOT3_, symObjAddr: 0x11A8, symBinAddr: 0x1000068D8, symSize: 0x5C }
  - { offsetInCU: 0x4EF8, offset: 0x1550D, size: 0x8, addend: 0x0, symName: __ZNSt3__112__tuple_leafILm2ERKNS_10__ignore_tIhEELb0EEC2B8ue170006IS4_vEEOT_, symObjAddr: 0x1204, symBinAddr: 0x100006934, symSize: 0x20 }
  - { offsetInCU: 0x4F3A, offset: 0x1554F, size: 0x8, addend: 0x0, symName: __ZNSt3__112__tuple_leafILm0EiLb0EE3getB8ue170006Ev, symObjAddr: 0x1458, symBinAddr: 0x100006B04, symSize: 0x14 }
  - { offsetInCU: 0x4F5F, offset: 0x15574, size: 0x8, addend: 0x0, symName: __ZNSt3__112__tuple_leafILm0ERiLb0EE3getB8ue170006Ev, symObjAddr: 0x146C, symBinAddr: 0x100006B18, symSize: 0x18 }
  - { offsetInCU: 0x4F84, offset: 0x15599, size: 0x8, addend: 0x0, symName: __ZNSt3__112__tuple_leafILm1EiLb0EE3getB8ue170006Ev, symObjAddr: 0x1484, symBinAddr: 0x100006B30, symSize: 0x14 }
  - { offsetInCU: 0x4FA9, offset: 0x155BE, size: 0x8, addend: 0x0, symName: __ZNSt3__112__tuple_leafILm1ERiLb0EE3getB8ue170006Ev, symObjAddr: 0x1498, symBinAddr: 0x100006B44, symSize: 0x18 }
  - { offsetInCU: 0x4FCE, offset: 0x155E3, size: 0x8, addend: 0x0, symName: __ZNSt3__112__tuple_leafILm2EiLb0EE3getB8ue170006Ev, symObjAddr: 0x14B0, symBinAddr: 0x100006B5C, symSize: 0x14 }
  - { offsetInCU: 0x4FF3, offset: 0x15608, size: 0x8, addend: 0x0, symName: __ZNSt3__112__tuple_leafILm2ERiLb0EE3getB8ue170006Ev, symObjAddr: 0x14C4, symBinAddr: 0x100006B70, symSize: 0x18 }
  - { offsetInCU: 0x501D, offset: 0x15632, size: 0x8, addend: 0x0, symName: __ZNKSt3__110__ignore_tIhEaSB8ue170006IiEERKS1_OT_, symObjAddr: 0x15F8, symBinAddr: 0x100006CA4, symSize: 0x18 }
  - { offsetInCU: 0x5056, offset: 0x1566B, size: 0x8, addend: 0x0, symName: __ZNSt3__112__tuple_leafILm2ERKNS_10__ignore_tIhEELb0EE3getB8ue170006Ev, symObjAddr: 0x1610, symBinAddr: 0x100006CBC, symSize: 0x18 }
  - { offsetInCU: 0x37ED, offset: 0x18ECD, size: 0x8, addend: 0x0, symName: __ZNSt3__1neB8ue170006IPmEEbRKNS_11__wrap_iterIT_EES6_, symObjAddr: 0x2D0, symBinAddr: 0x100006F50, symSize: 0x34 }
  - { offsetInCU: 0x3830, offset: 0x18F10, size: 0x8, addend: 0x0, symName: __ZNSt3__1eqB8ue170006IPmEEbRKNS_11__wrap_iterIT_EES6_, symObjAddr: 0x85C, symBinAddr: 0x100007438, symSize: 0x48 }
  - { offsetInCU: 0x3873, offset: 0x18F53, size: 0x8, addend: 0x0, symName: __ZNSt3__120__throw_out_of_rangeB8ue170006EPKc, symObjAddr: 0x25FC, symBinAddr: 0x1000077B8, symSize: 0x64 }
  - { offsetInCU: 0x59A9, offset: 0x1B089, size: 0x8, addend: 0x0, symName: __ZN10LenstraECMC2E8ECMCurvemm, symObjAddr: 0x0, symBinAddr: 0x100006CD4, symSize: 0x54 }
  - { offsetInCU: 0x59FE, offset: 0x1B0DE, size: 0x8, addend: 0x0, symName: __ZN10LenstraECMC1E8ECMCurvemm, symObjAddr: 0x80, symBinAddr: 0x100006D28, symSize: 0x44 }
  - { offsetInCU: 0x5A53, offset: 0x1B133, size: 0x8, addend: 0x0, symName: __ZN10LenstraECM5sieveERNSt3__16vectorImNS0_9allocatorImEEEE, symObjAddr: 0xC4, symBinAddr: 0x100006D6C, symSize: 0x168 }
  - { offsetInCU: 0x5B11, offset: 0x1B1F1, size: 0x8, addend: 0x0, symName: __ZNSt3__16vectorImNS_9allocatorImEEE4backB8ue170006Ev, symObjAddr: 0x254, symBinAddr: 0x100006ED4, symSize: 0x1C }
  - { offsetInCU: 0x5B36, offset: 0x1B216, size: 0x8, addend: 0x0, symName: __ZNSt3__16vectorImNS_9allocatorImEEE5beginB8ue170006Ev, symObjAddr: 0x270, symBinAddr: 0x100006EF0, symSize: 0x30 }
  - { offsetInCU: 0x5B5C, offset: 0x1B23C, size: 0x8, addend: 0x0, symName: __ZNSt3__16vectorImNS_9allocatorImEEE3endB8ue170006Ev, symObjAddr: 0x2A0, symBinAddr: 0x100006F20, symSize: 0x30 }
  - { offsetInCU: 0x5B82, offset: 0x1B262, size: 0x8, addend: 0x0, symName: __ZNKSt3__111__wrap_iterIPmEdeB8ue170006Ev, symObjAddr: 0x304, symBinAddr: 0x100006F84, symSize: 0x18 }
  - { offsetInCU: 0x5BA7, offset: 0x1B287, size: 0x8, addend: 0x0, symName: __ZNSt3__111__wrap_iterIPmEppB8ue170006Ev, symObjAddr: 0x31C, symBinAddr: 0x100006F9C, symSize: 0x20 }
  - { offsetInCU: 0x5BCC, offset: 0x1B2AC, size: 0x8, addend: 0x0, symName: __ZNSt3__16vectorImNS_9allocatorImEEE9push_backB8ue170006ERKm, symObjAddr: 0x33C, symBinAddr: 0x100006FBC, symSize: 0x6C }
  - { offsetInCU: 0x5C01, offset: 0x1B2E1, size: 0x8, addend: 0x0, symName: __ZN10LenstraECM7ppBoundERNSt3__16vectorImNS0_9allocatorImEEEE, symObjAddr: 0x3A8, symBinAddr: 0x100007028, symSize: 0x124 }
  - { offsetInCU: 0x5C7C, offset: 0x1B35C, size: 0x8, addend: 0x0, symName: __ZNSt3__16vectorImNS_9allocatorImEEE2atEm, symObjAddr: 0x4CC, symBinAddr: 0x10000714C, symSize: 0x60 }
  - { offsetInCU: 0x5CB1, offset: 0x1B391, size: 0x8, addend: 0x0, symName: __ZN10LenstraECM5getPPEi, symObjAddr: 0x598, symBinAddr: 0x1000071AC, symSize: 0x34 }
  - { offsetInCU: 0x5CE6, offset: 0x1B3C6, size: 0x8, addend: 0x0, symName: __ZN10LenstraECM6factorEiRNSt3__16vectorImNS0_9allocatorImEEEE, symObjAddr: 0x5CC, symBinAddr: 0x1000071E0, symSize: 0x224 }
  - { offsetInCU: 0x5E20, offset: 0x1B500, size: 0x8, addend: 0x0, symName: __ZN16InverseExceptionC1ERKS_, symObjAddr: 0x7F0, symBinAddr: 0x100007404, symSize: 0x34 }
  - { offsetInCU: 0x5E54, offset: 0x1B534, size: 0x8, addend: 0x0, symName: __ZNKSt3__111__wrap_iterIPmE4baseB8ue170006Ev, symObjAddr: 0x8A4, symBinAddr: 0x100007480, symSize: 0x18 }
  - { offsetInCU: 0x5E79, offset: 0x1B559, size: 0x8, addend: 0x0, symName: __ZN16InverseExceptionC2ERKS_, symObjAddr: 0x8BC, symBinAddr: 0x100007498, symSize: 0x94 }
  - { offsetInCU: 0x5EAE, offset: 0x1B58E, size: 0x8, addend: 0x0, symName: __ZNSt9exceptionC2B8ue170006ERKS_, symObjAddr: 0x950, symBinAddr: 0x10000752C, symSize: 0x28 }
  - { offsetInCU: 0x5EE2, offset: 0x1B5C2, size: 0x8, addend: 0x0, symName: __ZNSt3__16vectorImNS_9allocatorImEEE11__make_iterB8ue170006EPm, symObjAddr: 0xB40, symBinAddr: 0x100007554, symSize: 0x30 }
  - { offsetInCU: 0x5F15, offset: 0x1B5F5, size: 0x8, addend: 0x0, symName: __ZNSt3__111__wrap_iterIPmEC1B8ue170006ES1_, symObjAddr: 0xB70, symBinAddr: 0x100007584, symSize: 0x34 }
  - { offsetInCU: 0x5F4D, offset: 0x1B62D, size: 0x8, addend: 0x0, symName: __ZNSt3__111__wrap_iterIPmEC2B8ue170006ES1_, symObjAddr: 0xBA4, symBinAddr: 0x1000075B8, symSize: 0x20 }
  - { offsetInCU: 0x5F84, offset: 0x1B664, size: 0x8, addend: 0x0, symName: __ZNSt3__16vectorImNS_9allocatorImEEE22__construct_one_at_endB8ue170006IJRKmEEEvDpOT_, symObjAddr: 0xBEC, symBinAddr: 0x1000075D8, symSize: 0x90 }
  - { offsetInCU: 0x5FD1, offset: 0x1B6B1, size: 0x8, addend: 0x0, symName: __ZNSt3__16vectorImNS_9allocatorImEEE21__push_back_slow_pathIRKmEEvOT_, symObjAddr: 0xC7C, symBinAddr: 0x100007668, symSize: 0xD8 }
  - { offsetInCU: 0x6047, offset: 0x1B727, size: 0x8, addend: 0x0, symName: __ZNSt3__116allocator_traitsINS_9allocatorImEEE9constructB8ue170006ImJRKmEvEEvRS2_PT_DpOT0_, symObjAddr: 0xDC8, symBinAddr: 0x100007740, symSize: 0x34 }
  - { offsetInCU: 0x609D, offset: 0x1B77D, size: 0x8, addend: 0x0, symName: __ZNSt3__19allocatorImE9constructB8ue170006ImJRKmEEEvPT_DpOT0_, symObjAddr: 0xEA8, symBinAddr: 0x100007774, symSize: 0x28 }
  - { offsetInCU: 0x6102, offset: 0x1B7E2, size: 0x8, addend: 0x0, symName: __ZNKSt3__16vectorImNS_9allocatorImEEE20__throw_out_of_rangeB8ue170006Ev, symObjAddr: 0x25E0, symBinAddr: 0x10000779C, symSize: 0x1C }
  - { offsetInCU: 0x6126, offset: 0x1B806, size: 0x8, addend: 0x0, symName: __ZNSt12out_of_rangeC1B8ue170006EPKc, symObjAddr: 0x2660, symBinAddr: 0x10000781C, symSize: 0x34 }
  - { offsetInCU: 0x615D, offset: 0x1B83D, size: 0x8, addend: 0x0, symName: __ZNSt12out_of_rangeC2B8ue170006EPKc, symObjAddr: 0x2694, symBinAddr: 0x100007850, symSize: 0x4C }
...
